; Function Attrs: mustprogress nofree norecurse nosync nounwind willreturn memory(argmem: readwrite) uwtable
define dso_local void @_ZN4llvm12GISelCSEInfo5setMFERNS_15MachineFunctionE(ptr nocapture noundef nonnull writeonly align 8 dereferenceable(361) %0, ptr noundef nonnull align 8 dereferenceable(1041) %1) local_unnamed_addr #3 align 2 {
  %3 = getelementptr inbounds nuw i8, ptr %0, i64 192
  store ptr %1, ptr %3, align 8
  %4 = getelementptr inbounds nuw i8, ptr %1, i64 32
  %5 = load ptr, ptr %4, align 8
  %6 = getelementptr inbounds nuw i8, ptr %0, i64 184
  store ptr %5, ptr %6, align 8
  ret void
}